target datalayout = "e-m:e-p270:32:32-p271:32:32-p272:64:64-i64:64-i128:128-f80:128-n8:16:32:64-S128"
target triple = "x86_64-pc-linux-gnu"

%struct.Abc_Frame_t_ = type { ptr, ptr, ptr, ptr, ptr, ptr, ptr, ptr, ptr, ptr, i32, i32, i32, i32, i32, ptr, float, float, i32, i32, ptr, ptr, ptr, double, double, ptr, ptr, ptr, ptr, ptr, ptr, ptr, ptr, ptr, ptr, ptr, ptr, float, ptr, i32, ptr, ptr, ptr, ptr, ptr, i32, i32, i32, i32, i32, i32, ptr, ptr, ptr, ptr, ptr, ptr, i32, i32, ptr, ptr, ptr, ptr, ptr, ptr, ptr, ptr, ptr, ptr, ptr, ptr, ptr, ptr, ptr, ptr, ptr, ptr, ptr, ptr, ptr, ptr, ptr, ptr, ptr, ptr, ptr, ptr, ptr, ptr }
%struct.Vec_Int_t_ = type { i32, i32, ptr }
%struct.Abc_Ntk_t_ = type { i32, i32, ptr, ptr, ptr, ptr, ptr, ptr, ptr, ptr, ptr, ptr, ptr, [11 x i32], i32, i32, i32, i32, ptr, i32, ptr, ptr, i32, i32, i32, double, i32, %struct.Vec_Int_t_, ptr, ptr, ptr, ptr, ptr, float, i32, ptr, ptr, ptr, ptr, ptr, ptr, ptr, ptr, ptr, ptr, ptr, ptr, ptr, ptr, ptr, ptr, ptr, ptr, ptr, ptr, ptr, ptr }

; Function Attrs: inlinehint nounwind uwtable
define internal void @Abc_NtkSetStep(ptr noundef %0, i32 noundef %1) #1 {
  %3 = alloca ptr, align 8
  %4 = alloca i32, align 4
  store ptr %0, ptr %3, align 8, !tbaa !108
  store i32 %1, ptr %4, align 4, !tbaa !65
  %5 = load i32, ptr %4, align 4, !tbaa !65
  %6 = load ptr, ptr %3, align 8, !tbaa !108
  %7 = getelementptr inbounds nuw %struct.Abc_Ntk_t_, ptr %6, i32 0, i32 19
  store i32 %5, ptr %7, align 8, !tbaa !121
  ret void
}

; Function Attrs: inlinehint nounwind uwtable
define internal void @Abc_NtkSetBackup(ptr noundef %0, ptr noundef %1) #1 {
  %3 = alloca ptr, align 8
  %4 = alloca ptr, align 8
  store ptr %0, ptr %3, align 8, !tbaa !108
  store ptr %1, ptr %4, align 8, !tbaa !108
  %5 = load ptr, ptr %4, align 8, !tbaa !108
  %6 = load ptr, ptr %3, align 8, !tbaa !108
  %7 = getelementptr inbounds nuw %struct.Abc_Ntk_t_, ptr %6, i32 0, i32 18
  store ptr %5, ptr %7, align 8, !tbaa !113
  ret void
}

; Function Attrs: inlinehint nounwind uwtable
define internal i32 @Abc_NtkStep(ptr noundef %0) #1 {
  %2 = alloca ptr, align 8
  store ptr %0, ptr %2, align 8, !tbaa !108
  %3 = load ptr, ptr %2, align 8, !tbaa !108
  %4 = getelementptr inbounds nuw %struct.Abc_Ntk_t_, ptr %3, i32 0, i32 19
  %5 = load i32, ptr %4, align 8, !tbaa !121
  ret i32 %5
}

; Function Attrs: inlinehint nounwind uwtable
define internal ptr @Abc_NtkBackup(ptr noundef %0) #1 {
  %2 = alloca ptr, align 8
  store ptr %0, ptr %2, align 8, !tbaa !108
  %3 = load ptr, ptr %2, align 8, !tbaa !108
  %4 = getelementptr inbounds nuw %struct.Abc_Ntk_t_, ptr %3, i32 0, i32 18
  %5 = load ptr, ptr %4, align 8, !tbaa !113
  ret ptr %5
}

; Function Attrs: nounwind uwtable
define void @Abc_FrameSwapCurrentAndBackup(ptr noundef %0) #0 {
  %2 = alloca ptr, align 8
  %3 = alloca ptr, align 8
  %4 = alloca ptr, align 8
  %5 = alloca ptr, align 8
  %6 = alloca i32, align 4
  %7 = alloca i32, align 4
  %8 = alloca i32, align 4
  store ptr %0, ptr %2, align 8, !tbaa !3
  call void @llvm.lifetime.start.p0(i64 8, ptr %3) #10
  call void @llvm.lifetime.start.p0(i64 8, ptr %4) #10
  call void @llvm.lifetime.start.p0(i64 8, ptr %5) #10
  call void @llvm.lifetime.start.p0(i64 4, ptr %6) #10
  call void @llvm.lifetime.start.p0(i64 4, ptr %7) #10
  %9 = load ptr, ptr %2, align 8, !tbaa !3
  %10 = getelementptr inbounds nuw %struct.Abc_Frame_t_, ptr %9, i32 0, i32 6
  %11 = load ptr, ptr %10, align 8, !tbaa !107
  store ptr %11, ptr %3, align 8, !tbaa !108
  %12 = load ptr, ptr %3, align 8, !tbaa !108
  %13 = call ptr @Abc_NtkBackup(ptr noundef %12)
  store ptr %13, ptr %4, align 8, !tbaa !108
  %14 = load ptr, ptr %3, align 8, !tbaa !108
  %15 = call i32 @Abc_NtkStep(ptr noundef %14)
  store i32 %15, ptr %6, align 4, !tbaa !65
  %16 = load ptr, ptr %4, align 8, !tbaa !108
  %17 = icmp eq ptr %16, null
  br i1 %17, label %18, label %19

18:                                               ; preds = %1
  store i32 1, ptr %8, align 4
  br label %35

19:                                               ; preds = %1
  %20 = load ptr, ptr %4, align 8, !tbaa !108
  %21 = call ptr @Abc_NtkBackup(ptr noundef %20)
  store ptr %21, ptr %5, align 8, !tbaa !108
  %22 = load ptr, ptr %4, align 8, !tbaa !108
  %23 = call i32 @Abc_NtkStep(ptr noundef %22)
  store i32 %23, ptr %7, align 4, !tbaa !65
  %24 = load ptr, ptr %3, align 8, !tbaa !108
  %25 = load ptr, ptr %5, align 8, !tbaa !108
  call void @Abc_NtkSetBackup(ptr noundef %24, ptr noundef %25)
  %26 = load ptr, ptr %3, align 8, !tbaa !108
  %27 = load i32, ptr %7, align 4, !tbaa !65
  call void @Abc_NtkSetStep(ptr noundef %26, i32 noundef %27)
  %28 = load ptr, ptr %4, align 8, !tbaa !108
  %29 = load ptr, ptr %3, align 8, !tbaa !108
  call void @Abc_NtkSetBackup(ptr noundef %28, ptr noundef %29)
  %30 = load ptr, ptr %4, align 8, !tbaa !108
  %31 = load i32, ptr %6, align 4, !tbaa !65
  call void @Abc_NtkSetStep(ptr noundef %30, i32 noundef %31)
  %32 = load ptr, ptr %4, align 8, !tbaa !108
  %33 = load ptr, ptr %2, align 8, !tbaa !3
  %34 = getelementptr inbounds nuw %struct.Abc_Frame_t_, ptr %33, i32 0, i32 6
  store ptr %32, ptr %34, align 8, !tbaa !107
  store i32 0, ptr %8, align 4
  br label %35

35:                                               ; preds = %19, %18
  call void @llvm.lifetime.end.p0(i64 4, ptr %7) #10
  call void @llvm.lifetime.end.p0(i64 4, ptr %6) #10
  call void @llvm.lifetime.end.p0(i64 8, ptr %5) #10
  call void @llvm.lifetime.end.p0(i64 8, ptr %4) #10
  call void @llvm.lifetime.end.p0(i64 8, ptr %3) #10
  %36 = load i32, ptr %8, align 4
  switch i32 %36, label %38 [
    i32 0, label %37
    i32 1, label %37
  ]

37:                                               ; preds = %35, %35
  ret void

38:                                               ; preds = %35
  unreachable
}