; Function Attrs: mustprogress nofree norecurse nosync nounwind willreturn memory(readwrite, inaccessiblemem: none) uwtable
define void @Abc_FrameSwapCurrentAndBackup(ptr noundef captures(none) %0) local_unnamed_addr #4 {
  %2 = getelementptr inbounds nuw i8, ptr %0, i64 48
  %3 = load ptr, ptr %2, align 8, !tbaa !96
  %4 = getelementptr i8, ptr %3, i64 160
  %.val15 = load ptr, ptr %4, align 8, !tbaa !97
  %5 = icmp eq ptr %.val15, null
  br i1 %5, label %10, label %6

6:                                                ; preds = %1
  %7 = getelementptr i8, ptr %3, i64 168
  %.val16 = load i32, ptr %7, align 8, !tbaa !109
  %8 = getelementptr i8, ptr %.val15, i64 160
  %.val = load ptr, ptr %8, align 8, !tbaa !97
  %9 = getelementptr i8, ptr %.val15, i64 168
  %.val17 = load i32, ptr %9, align 8, !tbaa !109
  store ptr %.val, ptr %4, align 8, !tbaa !97
  store i32 %.val17, ptr %7, align 8, !tbaa !109
  store ptr %3, ptr %8, align 8, !tbaa !97
  store i32 %.val16, ptr %9, align 8, !tbaa !109
  store ptr %.val15, ptr %2, align 8, !tbaa !96
  br label %10

10:                                               ; preds = %1, %6
  ret void
}